target datalayout = "e-m:e-p270:32:32-p271:32:32-p272:64:64-i64:64-i128:128-f80:128-n8:16:32:64-S128"
target triple = "x86_64-pc-linux-gnu"

%struct.uv_loop_s = type { ptr, i32, [2 x ptr], %union.anon.1, ptr, i32, i64, i32, [2 x ptr], [2 x ptr], ptr, i32, i32, [2 x ptr], %union.pthread_mutex_t, %struct.uv_async_s, %union.pthread_rwlock_t, ptr, [2 x ptr], [2 x ptr], [2 x ptr], [2 x ptr], [2 x ptr], ptr, %struct.uv__io_s, i32, %struct.anon, i64, i64, [2 x i32], %struct.uv__io_s, %struct.uv_signal_s, i32, %struct.uv__io_s, ptr, i32 }
%union.anon.1 = type { ptr }
%union.pthread_mutex_t = type { %struct.__pthread_mutex_s }
%struct.__pthread_mutex_s = type { i32, i32, i32, i32, i32, i16, i16, %struct.__pthread_internal_list }
%struct.__pthread_internal_list = type { ptr, ptr }
%struct.uv_async_s = type { ptr, ptr, i32, ptr, [2 x ptr], %union.anon.2, ptr, i32, ptr, [2 x ptr], i32 }
%union.anon.2 = type { [4 x ptr] }
%union.pthread_rwlock_t = type { %struct.__pthread_rwlock_arch_t }
%struct.__pthread_rwlock_arch_t = type { i32, i32, i32, i32, i32, i32, i32, i32, i8, [7 x i8], i64, i32 }
%struct.anon = type { ptr, i32 }
%struct.uv_signal_s = type { ptr, ptr, i32, ptr, [2 x ptr], %union.anon.3, ptr, i32, ptr, i32, %struct.anon.4, i32, i32 }
%union.anon.3 = type { [4 x ptr] }
%struct.anon.4 = type { ptr, ptr, ptr, i32 }
%struct.uv__io_s = type { ptr, [2 x ptr], [2 x ptr], i32, i32, i32 }
%struct.uv_timer_s = type { ptr, ptr, i32, ptr, [2 x ptr], %union.anon, ptr, i32, ptr, [3 x ptr], i64, i64, i64 }
%union.anon = type { [4 x ptr] }
%struct.heap_node = type { ptr, ptr, ptr }
%struct.heap = type { ptr, i32 }

; Function Attrs: nounwind uwtable
define internal void @heap_node_swap(ptr noundef %0, ptr noundef %1, ptr noundef %2) #0 {
  %4 = alloca ptr, align 8
  %5 = alloca ptr, align 8
  %6 = alloca ptr, align 8
  %7 = alloca ptr, align 8
  %8 = alloca %struct.heap_node, align 8
  store ptr %0, ptr %4, align 8
  store ptr %1, ptr %5, align 8
  store ptr %2, ptr %6, align 8
  %9 = load ptr, ptr %5, align 8
  call void @llvm.memcpy.p0.p0.i64(ptr align 8 %8, ptr align 8 %9, i64 24, i1 false)
  %10 = load ptr, ptr %5, align 8
  %11 = load ptr, ptr %6, align 8
  call void @llvm.memcpy.p0.p0.i64(ptr align 8 %10, ptr align 8 %11, i64 24, i1 false)
  %12 = load ptr, ptr %6, align 8
  call void @llvm.memcpy.p0.p0.i64(ptr align 8 %12, ptr align 8 %8, i64 24, i1 false)
  %13 = load ptr, ptr %6, align 8
  %14 = load ptr, ptr %5, align 8
  %15 = getelementptr inbounds %struct.heap_node, ptr %14, i32 0, i32 2
  store ptr %13, ptr %15, align 8
  %16 = load ptr, ptr %6, align 8
  %17 = getelementptr inbounds %struct.heap_node, ptr %16, i32 0, i32 0
  %18 = load ptr, ptr %17, align 8
  %19 = load ptr, ptr %6, align 8
  %20 = icmp eq ptr %18, %19
  br i1 %20, label %21, label %28

21:                                               ; preds = %3
  %22 = load ptr, ptr %5, align 8
  %23 = load ptr, ptr %6, align 8
  %24 = getelementptr inbounds %struct.heap_node, ptr %23, i32 0, i32 0
  store ptr %22, ptr %24, align 8
  %25 = load ptr, ptr %6, align 8
  %26 = getelementptr inbounds %struct.heap_node, ptr %25, i32 0, i32 1
  %27 = load ptr, ptr %26, align 8
  store ptr %27, ptr %7, align 8
  br label %35

28:                                               ; preds = %3
  %29 = load ptr, ptr %5, align 8
  %30 = load ptr, ptr %6, align 8
  %31 = getelementptr inbounds %struct.heap_node, ptr %30, i32 0, i32 1
  store ptr %29, ptr %31, align 8
  %32 = load ptr, ptr %6, align 8
  %33 = getelementptr inbounds %struct.heap_node, ptr %32, i32 0, i32 0
  %34 = load ptr, ptr %33, align 8
  store ptr %34, ptr %7, align 8
  br label %35

35:                                               ; preds = %28, %21
  %36 = load ptr, ptr %7, align 8
  %37 = icmp ne ptr %36, null
  br i1 %37, label %38, label %42

38:                                               ; preds = %35
  %39 = load ptr, ptr %6, align 8
  %40 = load ptr, ptr %7, align 8
  %41 = getelementptr inbounds %struct.heap_node, ptr %40, i32 0, i32 2
  store ptr %39, ptr %41, align 8
  br label %42

42:                                               ; preds = %38, %35
  %43 = load ptr, ptr %5, align 8
  %44 = getelementptr inbounds %struct.heap_node, ptr %43, i32 0, i32 0
  %45 = load ptr, ptr %44, align 8
  %46 = icmp ne ptr %45, null
  br i1 %46, label %47, label %53

47:                                               ; preds = %42
  %48 = load ptr, ptr %5, align 8
  %49 = load ptr, ptr %5, align 8
  %50 = getelementptr inbounds %struct.heap_node, ptr %49, i32 0, i32 0
  %51 = load ptr, ptr %50, align 8
  %52 = getelementptr inbounds %struct.heap_node, ptr %51, i32 0, i32 2
  store ptr %48, ptr %52, align 8
  br label %53

53:                                               ; preds = %47, %42
  %54 = load ptr, ptr %5, align 8
  %55 = getelementptr inbounds %struct.heap_node, ptr %54, i32 0, i32 1
  %56 = load ptr, ptr %55, align 8
  %57 = icmp ne ptr %56, null
  br i1 %57, label %58, label %64

58:                                               ; preds = %53
  %59 = load ptr, ptr %5, align 8
  %60 = load ptr, ptr %5, align 8
  %61 = getelementptr inbounds %struct.heap_node, ptr %60, i32 0, i32 1
  %62 = load ptr, ptr %61, align 8
  %63 = getelementptr inbounds %struct.heap_node, ptr %62, i32 0, i32 2
  store ptr %59, ptr %63, align 8
  br label %64

64:                                               ; preds = %58, %53
  %65 = load ptr, ptr %6, align 8
  %66 = getelementptr inbounds %struct.heap_node, ptr %65, i32 0, i32 2
  %67 = load ptr, ptr %66, align 8
  %68 = icmp eq ptr %67, null
  br i1 %68, label %69, label %73

69:                                               ; preds = %64
  %70 = load ptr, ptr %6, align 8
  %71 = load ptr, ptr %4, align 8
  %72 = getelementptr inbounds %struct.heap, ptr %71, i32 0, i32 0
  store ptr %70, ptr %72, align 8
  br label %94

73:                                               ; preds = %64
  %74 = load ptr, ptr %6, align 8
  %75 = getelementptr inbounds %struct.heap_node, ptr %74, i32 0, i32 2
  %76 = load ptr, ptr %75, align 8
  %77 = getelementptr inbounds %struct.heap_node, ptr %76, i32 0, i32 0
  %78 = load ptr, ptr %77, align 8
  %79 = load ptr, ptr %5, align 8
  %80 = icmp eq ptr %78, %79
  br i1 %80, label %81, label %87

81:                                               ; preds = %73
  %82 = load ptr, ptr %6, align 8
  %83 = load ptr, ptr %6, align 8
  %84 = getelementptr inbounds %struct.heap_node, ptr %83, i32 0, i32 2
  %85 = load ptr, ptr %84, align 8
  %86 = getelementptr inbounds %struct.heap_node, ptr %85, i32 0, i32 0
  store ptr %82, ptr %86, align 8
  br label %93

87:                                               ; preds = %73
  %88 = load ptr, ptr %6, align 8
  %89 = load ptr, ptr %6, align 8
  %90 = getelementptr inbounds %struct.heap_node, ptr %89, i32 0, i32 2
  %91 = load ptr, ptr %90, align 8
  %92 = getelementptr inbounds %struct.heap_node, ptr %91, i32 0, i32 1
  store ptr %88, ptr %92, align 8
  br label %93

93:                                               ; preds = %87, %81
  br label %94

94:                                               ; preds = %93, %69
  ret void
}

; Function Attrs: nounwind uwtable
define internal void @heap_insert(ptr noundef %0, ptr noundef %1, ptr noundef %2) #0 {
  %4 = alloca ptr, align 8
  %5 = alloca ptr, align 8
  %6 = alloca ptr, align 8
  %7 = alloca ptr, align 8
  %8 = alloca ptr, align 8
  %9 = alloca i32, align 4
  %10 = alloca i32, align 4
  %11 = alloca i32, align 4
  store ptr %0, ptr %4, align 8
  store ptr %1, ptr %5, align 8
  store ptr %2, ptr %6, align 8
  %12 = load ptr, ptr %5, align 8
  %13 = getelementptr inbounds %struct.heap_node, ptr %12, i32 0, i32 0
  store ptr null, ptr %13, align 8
  %14 = load ptr, ptr %5, align 8
  %15 = getelementptr inbounds %struct.heap_node, ptr %14, i32 0, i32 1
  store ptr null, ptr %15, align 8
  %16 = load ptr, ptr %5, align 8
  %17 = getelementptr inbounds %struct.heap_node, ptr %16, i32 0, i32 2
  store ptr null, ptr %17, align 8
  store i32 0, ptr %9, align 4
  store i32 0, ptr %11, align 4
  %18 = load ptr, ptr %4, align 8
  %19 = getelementptr inbounds %struct.heap, ptr %18, i32 0, i32 1
  %20 = load i32, ptr %19, align 8
  %21 = add i32 1, %20
  store i32 %21, ptr %10, align 4
  br label %22

22:                                               ; preds = %31, %3
  %23 = load i32, ptr %10, align 4
  %24 = icmp uge i32 %23, 2
  br i1 %24, label %25, label %36

25:                                               ; preds = %22
  %26 = load i32, ptr %9, align 4
  %27 = shl i32 %26, 1
  %28 = load i32, ptr %10, align 4
  %29 = and i32 %28, 1
  %30 = or i32 %27, %29
  store i32 %30, ptr %9, align 4
  br label %31

31:                                               ; preds = %25
  %32 = load i32, ptr %11, align 4
  %33 = add i32 %32, 1
  store i32 %33, ptr %11, align 4
  %34 = load i32, ptr %10, align 4
  %35 = udiv i32 %34, 2
  store i32 %35, ptr %10, align 4
  br label %22, !llvm.loop !5

36:                                               ; preds = %22
  %37 = load ptr, ptr %4, align 8
  %38 = getelementptr inbounds %struct.heap, ptr %37, i32 0, i32 0
  store ptr %38, ptr %8, align 8
  store ptr %38, ptr %7, align 8
  br label %39

39:                                               ; preds = %55, %36
  %40 = load i32, ptr %11, align 4
  %41 = icmp ugt i32 %40, 0
  br i1 %41, label %42, label %60

42:                                               ; preds = %39
  %43 = load ptr, ptr %8, align 8
  store ptr %43, ptr %7, align 8
  %44 = load i32, ptr %9, align 4
  %45 = and i32 %44, 1
  %46 = icmp ne i32 %45, 0
  br i1 %46, label %47, label %51

47:                                               ; preds = %42
  %48 = load ptr, ptr %8, align 8
  %49 = load ptr, ptr %48, align 8
  %50 = getelementptr inbounds %struct.heap_node, ptr %49, i32 0, i32 1
  store ptr %50, ptr %8, align 8
  br label %55

51:                                               ; preds = %42
  %52 = load ptr, ptr %8, align 8
  %53 = load ptr, ptr %52, align 8
  %54 = getelementptr inbounds %struct.heap_node, ptr %53, i32 0, i32 0
  store ptr %54, ptr %8, align 8
  br label %55

55:                                               ; preds = %51, %47
  %56 = load i32, ptr %9, align 4
  %57 = lshr i32 %56, 1
  store i32 %57, ptr %9, align 4
  %58 = load i32, ptr %11, align 4
  %59 = sub i32 %58, 1
  store i32 %59, ptr %11, align 4
  br label %39, !llvm.loop !7

60:                                               ; preds = %39
  %61 = load ptr, ptr %7, align 8
  %62 = load ptr, ptr %61, align 8
  %63 = load ptr, ptr %5, align 8
  %64 = getelementptr inbounds %struct.heap_node, ptr %63, i32 0, i32 2
  store ptr %62, ptr %64, align 8
  %65 = load ptr, ptr %5, align 8
  %66 = load ptr, ptr %8, align 8
  store ptr %65, ptr %66, align 8
  %67 = load ptr, ptr %4, align 8
  %68 = getelementptr inbounds %struct.heap, ptr %67, i32 0, i32 1
  %69 = load i32, ptr %68, align 8
  %70 = add i32 %69, 1
  store i32 %70, ptr %68, align 8
  br label %71

71:                                               ; preds = %86, %60
  %72 = load ptr, ptr %5, align 8
  %73 = getelementptr inbounds %struct.heap_node, ptr %72, i32 0, i32 2
  %74 = load ptr, ptr %73, align 8
  %75 = icmp ne ptr %74, null
  br i1 %75, label %76, label %84

76:                                               ; preds = %71
  %77 = load ptr, ptr %6, align 8
  %78 = load ptr, ptr %5, align 8
  %79 = load ptr, ptr %5, align 8
  %80 = getelementptr inbounds %struct.heap_node, ptr %79, i32 0, i32 2
  %81 = load ptr, ptr %80, align 8
  %82 = call i32 %77(ptr noundef %78, ptr noundef %81)
  %83 = icmp ne i32 %82, 0
  br label %84

84:                                               ; preds = %76, %71
  %85 = phi i1 [ false, %71 ], [ %83, %76 ]
  br i1 %85, label %86, label %92

86:                                               ; preds = %84
  %87 = load ptr, ptr %4, align 8
  %88 = load ptr, ptr %5, align 8
  %89 = getelementptr inbounds %struct.heap_node, ptr %88, i32 0, i32 2
  %90 = load ptr, ptr %89, align 8
  %91 = load ptr, ptr %5, align 8
  call void @heap_node_swap(ptr noundef %87, ptr noundef %90, ptr noundef %91)
  br label %71, !llvm.loop !8

92:                                               ; preds = %84
  ret void
}

; Function Attrs: nounwind uwtable
define internal ptr @timer_heap(ptr noundef %0) #0 {
  %2 = alloca ptr, align 8
  store ptr %0, ptr %2, align 8
  %3 = load ptr, ptr %2, align 8
  %4 = getelementptr inbounds %struct.uv_loop_s, ptr %3, i32 0, i32 26
  ret ptr %4
}

; Function Attrs: nounwind uwtable
define dso_local i32 @uv_timer_start(ptr noundef %0, ptr noundef %1, i64 noundef %2, i64 noundef %3) #0 {
  %5 = alloca i32, align 4
  %6 = alloca ptr, align 8
  %7 = alloca ptr, align 8
  %8 = alloca i64, align 8
  %9 = alloca i64, align 8
  %10 = alloca i64, align 8
  store ptr %0, ptr %6, align 8
  store ptr %1, ptr %7, align 8
  store i64 %2, ptr %8, align 8
  store i64 %3, ptr %9, align 8
  %11 = load ptr, ptr %6, align 8
  %12 = getelementptr inbounds %struct.uv_timer_s, ptr %11, i32 0, i32 7
  %13 = load i32, ptr %12, align 8
  %14 = and i32 %13, 3
  %15 = icmp ne i32 %14, 0
  br i1 %15, label %19, label %16

16:                                               ; preds = %4
  %17 = load ptr, ptr %7, align 8
  %18 = icmp eq ptr %17, null
  br i1 %18, label %19, label %20

19:                                               ; preds = %16, %4
  store i32 -22, ptr %5, align 4
  br label %93

20:                                               ; preds = %16
  %21 = load ptr, ptr %6, align 8
  %22 = getelementptr inbounds %struct.uv_timer_s, ptr %21, i32 0, i32 7
  %23 = load i32, ptr %22, align 8
  %24 = and i32 %23, 4
  %25 = icmp ne i32 %24, 0
  br i1 %25, label %26, label %29

26:                                               ; preds = %20
  %27 = load ptr, ptr %6, align 8
  %28 = call i32 @uv_timer_stop(ptr noundef %27)
  br label %29

29:                                               ; preds = %26, %20
  %30 = load ptr, ptr %6, align 8
  %31 = getelementptr inbounds %struct.uv_timer_s, ptr %30, i32 0, i32 1
  %32 = load ptr, ptr %31, align 8
  %33 = getelementptr inbounds %struct.uv_loop_s, ptr %32, i32 0, i32 28
  %34 = load i64, ptr %33, align 8
  %35 = load i64, ptr %8, align 8
  %36 = add i64 %34, %35
  store i64 %36, ptr %10, align 8
  %37 = load i64, ptr %10, align 8
  %38 = load i64, ptr %8, align 8
  %39 = icmp ult i64 %37, %38
  br i1 %39, label %40, label %41

40:                                               ; preds = %29
  store i64 -1, ptr %10, align 8
  br label %41

41:                                               ; preds = %40, %29
  %42 = load ptr, ptr %7, align 8
  %43 = load ptr, ptr %6, align 8
  %44 = getelementptr inbounds %struct.uv_timer_s, ptr %43, i32 0, i32 8
  store ptr %42, ptr %44, align 8
  %45 = load i64, ptr %10, align 8
  %46 = load ptr, ptr %6, align 8
  %47 = getelementptr inbounds %struct.uv_timer_s, ptr %46, i32 0, i32 10
  store i64 %45, ptr %47, align 8
  %48 = load i64, ptr %9, align 8
  %49 = load ptr, ptr %6, align 8
  %50 = getelementptr inbounds %struct.uv_timer_s, ptr %49, i32 0, i32 11
  store i64 %48, ptr %50, align 8
  %51 = load ptr, ptr %6, align 8
  %52 = getelementptr inbounds %struct.uv_timer_s, ptr %51, i32 0, i32 1
  %53 = load ptr, ptr %52, align 8
  %54 = getelementptr inbounds %struct.uv_loop_s, ptr %53, i32 0, i32 27
  %55 = load i64, ptr %54, align 8
  %56 = add i64 %55, 1
  store i64 %56, ptr %54, align 8
  %57 = load ptr, ptr %6, align 8
  %58 = getelementptr inbounds %struct.uv_timer_s, ptr %57, i32 0, i32 12
  store i64 %55, ptr %58, align 8
  %59 = load ptr, ptr %6, align 8
  %60 = getelementptr inbounds %struct.uv_timer_s, ptr %59, i32 0, i32 1
  %61 = load ptr, ptr %60, align 8
  %62 = call ptr @timer_heap(ptr noundef %61)
  %63 = load ptr, ptr %6, align 8
  %64 = getelementptr inbounds %struct.uv_timer_s, ptr %63, i32 0, i32 9
  call void @heap_insert(ptr noundef %62, ptr noundef %64, ptr noundef @timer_less_than)
  br label %65

65:                                               ; preds = %41
  %66 = load ptr, ptr %6, align 8
  %67 = getelementptr inbounds %struct.uv_timer_s, ptr %66, i32 0, i32 7
  %68 = load i32, ptr %67, align 8
  %69 = and i32 %68, 4
  %70 = icmp ne i32 %69, 0
  br i1 %70, label %71, label %72

71:                                               ; preds = %65
  br label %92

72:                                               ; preds = %65
  %73 = load ptr, ptr %6, align 8
  %74 = getelementptr inbounds %struct.uv_timer_s, ptr %73, i32 0, i32 7
  %75 = load i32, ptr %74, align 8
  %76 = or i32 %75, 4
  store i32 %76, ptr %74, align 8
  %77 = load ptr, ptr %6, align 8
  %78 = getelementptr inbounds %struct.uv_timer_s, ptr %77, i32 0, i32 7
  %79 = load i32, ptr %78, align 8
  %80 = and i32 %79, 8
  %81 = icmp ne i32 %80, 0
  br i1 %81, label %82, label %91

82:                                               ; preds = %72
  br label %83

83:                                               ; preds = %82
  %84 = load ptr, ptr %6, align 8
  %85 = getelementptr inbounds %struct.uv_timer_s, ptr %84, i32 0, i32 1
  %86 = load ptr, ptr %85, align 8
  %87 = getelementptr inbounds %struct.uv_loop_s, ptr %86, i32 0, i32 1
  %88 = load i32, ptr %87, align 8
  %89 = add i32 %88, 1
  store i32 %89, ptr %87, align 8
  br label %90

90:                                               ; preds = %83
  br label %91

91:                                               ; preds = %90, %72
  br label %92

92:                                               ; preds = %91, %71
  store i32 0, ptr %5, align 4
  br label %93

93:                                               ; preds = %92, %19
  %94 = load i32, ptr %5, align 4
  ret i32 %94
}