; Function Attrs: nofree norecurse nosync nounwind memory(readwrite, inaccessiblemem: none) uwtable
define dso_local range(i32 -22, 1) i32 @uv_timer_start(ptr noundef %0, ptr noundef %1, i64 noundef %2, i64 noundef %3) local_unnamed_addr #1 {
  %5 = alloca %struct.heap_node, align 8
  %6 = getelementptr inbounds nuw i8, ptr %0, i64 88
  %7 = load i32, ptr %6, align 8
  %8 = and i32 %7, 3
  %9 = icmp ne i32 %8, 0
  %10 = icmp eq ptr %1, null
  %or.cond = or i1 %10, %9
  br i1 %or.cond, label %99, label %11

11:                                               ; preds = %4
  %12 = and i32 %7, 4
  %.not = icmp eq i32 %12, 0
  br i1 %.not, label %15, label %13

13:                                               ; preds = %11
  %14 = tail call i32 @uv_timer_stop(ptr noundef nonnull %0)
  br label %15

15:                                               ; preds = %13, %11
  %16 = getelementptr inbounds nuw i8, ptr %0, i64 8
  %17 = load ptr, ptr %16, align 8
  %18 = getelementptr inbounds nuw i8, ptr %17, i64 544
  %19 = load i64, ptr %18, align 8
  %spec.store.select = tail call i64 @llvm.uadd.sat.i64(i64 %2, i64 %19)
  %20 = getelementptr inbounds nuw i8, ptr %0, i64 96
  store ptr %1, ptr %20, align 8
  %21 = getelementptr inbounds nuw i8, ptr %0, i64 128
  store i64 %spec.store.select, ptr %21, align 8
  %22 = getelementptr inbounds nuw i8, ptr %0, i64 136
  store i64 %3, ptr %22, align 8
  %23 = getelementptr inbounds nuw i8, ptr %17, i64 536
  %24 = load i64, ptr %23, align 8
  %25 = add i64 %24, 1
  store i64 %25, ptr %23, align 8
  %26 = getelementptr inbounds nuw i8, ptr %0, i64 144
  store i64 %24, ptr %26, align 8
  %27 = load ptr, ptr %16, align 8
  %28 = getelementptr inbounds nuw i8, ptr %27, i64 520
  %29 = getelementptr inbounds nuw i8, ptr %0, i64 104
  %30 = getelementptr inbounds nuw i8, ptr %0, i64 112
  %31 = getelementptr inbounds nuw i8, ptr %0, i64 120
  %32 = getelementptr inbounds nuw i8, ptr %27, i64 528
  tail call void @llvm.memset.p0.i64(ptr noundef nonnull align 8 dereferenceable(24) %29, i8 0, i64 24, i1 false)
  %33 = load i32, ptr %32, align 8
  %34 = add i32 %33, 1
  %35 = icmp ugt i32 %34, 1
  br i1 %35, label %.lr.ph.i, label %.preheader.._crit_edge_crit_edge.i

.preheader.._crit_edge_crit_edge.i:               ; preds = %15
  %.pre.i = load ptr, ptr %28, align 8
  br label %._crit_edge.i

.lr.ph.i:                                         ; preds = %15, %.lr.ph.i
  %.09.i = phi i32 [ %39, %.lr.ph.i ], [ 0, %15 ]
  %.0288.i = phi i32 [ %40, %.lr.ph.i ], [ %34, %15 ]
  %.0297.i = phi i32 [ %38, %.lr.ph.i ], [ 0, %15 ]
  %36 = shl i32 %.0297.i, 1
  %37 = and i32 %.0288.i, 1
  %38 = or disjoint i32 %36, %37
  %39 = add nuw nsw i32 %.09.i, 1
  %40 = lshr i32 %.0288.i, 1
  %41 = icmp ugt i32 %.0288.i, 3
  br i1 %41, label %.lr.ph.i, label %.lr.ph15.i, !llvm.loop !5

.lr.ph15.i:                                       ; preds = %.lr.ph.i, %.lr.ph15.i
  %.114.i = phi i32 [ %46, %.lr.ph15.i ], [ %39, %.lr.ph.i ]
  %.13013.i = phi i32 [ %45, %.lr.ph15.i ], [ %38, %.lr.ph.i ]
  %.03112.i = phi ptr [ %.132.i, %.lr.ph15.i ], [ %28, %.lr.ph.i ]
  %42 = load ptr, ptr %.03112.i, align 8
  %43 = shl i32 %.13013.i, 3
  %44 = and i32 %43, 8
  %.132.idx.i = zext nneg i32 %44 to i64
  %.132.i = getelementptr inbounds nuw i8, ptr %42, i64 %.132.idx.i
  %45 = lshr i32 %.13013.i, 1
  %46 = add nsw i32 %.114.i, -1
  %.not.i = icmp eq i32 %46, 0
  br i1 %.not.i, label %._crit_edge.i, label %.lr.ph15.i, !llvm.loop !7

._crit_edge.i:                                    ; preds = %.lr.ph15.i, %.preheader.._crit_edge_crit_edge.i
  %47 = phi ptr [ %.pre.i, %.preheader.._crit_edge_crit_edge.i ], [ %42, %.lr.ph15.i ]
  %.031.lcssa.i = phi ptr [ %28, %.preheader.._crit_edge_crit_edge.i ], [ %.132.i, %.lr.ph15.i ]
  store ptr %47, ptr %31, align 8
  store ptr %29, ptr %.031.lcssa.i, align 8
  %48 = load i32, ptr %32, align 8
  %49 = add i32 %48, 1
  store i32 %49, ptr %32, align 8
  %50 = load ptr, ptr %31, align 8
  %.not3518.i = icmp eq ptr %50, null
  br i1 %.not3518.i, label %heap_insert.exit, label %.lr.ph20.i

.lr.ph20.i:                                       ; preds = %._crit_edge.i, %heap_node_swap.exit.i
  %51 = phi ptr [ %88, %heap_node_swap.exit.i ], [ %50, %._crit_edge.i ]
  %52 = load i64, ptr %21, align 8
  %53 = getelementptr inbounds nuw i8, ptr %51, i64 24
  %54 = load i64, ptr %53, align 8
  %55 = icmp ult i64 %52, %54
  br i1 %55, label %timer_less_than.exit.thread3.i, label %56

56:                                               ; preds = %.lr.ph20.i
  %57 = icmp ult i64 %54, %52
  br i1 %57, label %heap_insert.exit, label %timer_less_than.exit.i

timer_less_than.exit.i:                           ; preds = %56
  %58 = load i64, ptr %26, align 8
  %59 = getelementptr inbounds nuw i8, ptr %51, i64 40
  %60 = load i64, ptr %59, align 8
  %.not6.i = icmp ult i64 %58, %60
  br i1 %.not6.i, label %timer_less_than.exit.thread3.i, label %heap_insert.exit

timer_less_than.exit.thread3.i:                   ; preds = %timer_less_than.exit.i, %.lr.ph20.i
  call void @llvm.lifetime.start.p0(i64 24, ptr nonnull %5)
  call void @llvm.memcpy.p0.p0.i64(ptr noundef nonnull align 8 dereferenceable(24) %5, ptr noundef nonnull align 8 dereferenceable(24) %51, i64 24, i1 false)
  tail call void @llvm.memcpy.p0.p0.i64(ptr noundef nonnull align 8 dereferenceable(24) %51, ptr noundef nonnull align 8 dereferenceable(24) %29, i64 16, i1 false)
  call void @llvm.memcpy.p0.p0.i64(ptr noundef nonnull align 8 dereferenceable(24) %29, ptr noundef nonnull align 8 dereferenceable(24) %5, i64 24, i1 false)
  %61 = getelementptr inbounds nuw i8, ptr %51, i64 16
  store ptr %29, ptr %61, align 8
  %62 = load ptr, ptr %29, align 8
  %63 = icmp eq ptr %62, %29
  br i1 %63, label %64, label %65

64:                                               ; preds = %timer_less_than.exit.thread3.i
  store ptr %51, ptr %29, align 8
  %.0.pr.i.i = load ptr, ptr %30, align 8
  br label %66

65:                                               ; preds = %timer_less_than.exit.thread3.i
  store ptr %51, ptr %30, align 8
  br label %66

66:                                               ; preds = %65, %64
  %.0.i38.i = phi ptr [ %62, %65 ], [ %.0.pr.i.i, %64 ]
  %.not.i.i = icmp eq ptr %.0.i38.i, null
  br i1 %.not.i.i, label %69, label %67

67:                                               ; preds = %66
  %68 = getelementptr inbounds nuw i8, ptr %.0.i38.i, i64 16
  store ptr %29, ptr %68, align 8
  br label %69

69:                                               ; preds = %67, %66
  %70 = load ptr, ptr %51, align 8
  %.not36.i.i = icmp eq ptr %70, null
  br i1 %.not36.i.i, label %73, label %71

71:                                               ; preds = %69
  %72 = getelementptr inbounds nuw i8, ptr %70, i64 16
  store ptr %51, ptr %72, align 8
  br label %73

73:                                               ; preds = %71, %69
  %74 = getelementptr inbounds nuw i8, ptr %51, i64 8
  %75 = load ptr, ptr %74, align 8
  %.not37.i.i = icmp eq ptr %75, null
  br i1 %.not37.i.i, label %78, label %76

76:                                               ; preds = %73
  %77 = getelementptr inbounds nuw i8, ptr %75, i64 16
  store ptr %51, ptr %77, align 8
  br label %78

78:                                               ; preds = %76, %73
  %79 = load ptr, ptr %31, align 8
  %80 = icmp eq ptr %79, null
  br i1 %80, label %81, label %82

81:                                               ; preds = %78
  store ptr %29, ptr %28, align 8
  br label %heap_node_swap.exit.i

82:                                               ; preds = %78
  %83 = load ptr, ptr %79, align 8
  %84 = icmp eq ptr %83, %51
  br i1 %84, label %85, label %86

85:                                               ; preds = %82
  store ptr %29, ptr %79, align 8
  br label %heap_node_swap.exit.i

86:                                               ; preds = %82
  %87 = getelementptr inbounds nuw i8, ptr %79, i64 8
  store ptr %29, ptr %87, align 8
  br label %heap_node_swap.exit.i

heap_node_swap.exit.i:                            ; preds = %86, %85, %81
  call void @llvm.lifetime.end.p0(i64 24, ptr nonnull %5)
  %88 = load ptr, ptr %31, align 8
  %.not35.i = icmp eq ptr %88, null
  br i1 %.not35.i, label %heap_insert.exit, label %.lr.ph20.i, !llvm.loop !8

heap_insert.exit:                                 ; preds = %56, %timer_less_than.exit.i, %heap_node_swap.exit.i, %._crit_edge.i
  %89 = load i32, ptr %6, align 8
  %90 = and i32 %89, 4
  %.not24 = icmp eq i32 %90, 0
  br i1 %.not24, label %91, label %99

91:                                               ; preds = %heap_insert.exit
  %92 = or disjoint i32 %89, 4
  store i32 %92, ptr %6, align 8
  %93 = and i32 %89, 8
  %.not25 = icmp eq i32 %93, 0
  br i1 %.not25, label %99, label %94

94:                                               ; preds = %91
  %95 = load ptr, ptr %16, align 8
  %96 = getelementptr inbounds nuw i8, ptr %95, i64 8
  %97 = load i32, ptr %96, align 8
  %98 = add i32 %97, 1
  store i32 %98, ptr %96, align 8
  br label %99

99:                                               ; preds = %heap_insert.exit, %94, %91, %4
  %.0 = phi i32 [ -22, %4 ], [ 0, %91 ], [ 0, %94 ], [ 0, %heap_insert.exit ]
  ret i32 %.0
}